(dp0
I0
S'\n'
p1
sI1
S'\r'
p2
sI2
S'!'
p3
sI3
S' '
p4
sI4
S'"'
p5
sI5
S"'"
p6
sI6
S')'
p7
sI7
S'('
p8
sI8
S'-'
p9
sI9
S','
p10
sI10
S'.'
p11
sI11
S'2'
p12
sI12
S'5'
p13
sI13
S';'
p14
sI14
S':'
p15
sI15
S'?'
p16
sI16
S'a'
p17
sI17
S'c'
p18
sI18
S'b'
p19
sI19
S'e'
p20
sI20
S'd'
p21
sI21
S'g'
p22
sI22
S'f'
p23
sI23
S'i'
p24
sI24
S'h'
p25
sI25
S'k'
p26
sI26
S'j'
p27
sI27
S'm'
p28
sI28
S'l'
p29
sI29
S'o'
p30
sI30
S'n'
p31
sI31
S'q'
p32
sI32
S'p'
p33
sI33
S's'
p34
sI34
S'r'
p35
sI35
S'u'
p36
sI36
S't'
p37
sI37
S'w'
p38
sI38
S'v'
p39
sI39
S'y'
p40
sI40
S'x'
p41
sI41
S'z'
p42
s.