(dp0
I0
S'\n'
p1
sI1
S'\r'
p2
sI2
S'!'
p3
sI3
S' '
p4
sI4
S'"'
p5
sI5
S"'"
p6
sI6
S'&'
p7
sI7
S')'
p8
sI8
S'('
p9
sI9
S'*'
p10
sI10
S'-'
p11
sI11
S','
p12
sI12
S'.'
p13
sI13
S'1'
p14
sI14
S'0'
p15
sI15
S'3'
p16
sI16
S'2'
p17
sI17
S'5'
p18
sI18
S'4'
p19
sI19
S'7'
p20
sI20
S'6'
p21
sI21
S'9'
p22
sI22
S'8'
p23
sI23
S';'
p24
sI24
S':'
p25
sI25
S'?'
p26
sI26
S'A'
p27
sI27
S'C'
p28
sI28
S'B'
p29
sI29
S'E'
p30
sI30
S'D'
p31
sI31
S'G'
p32
sI32
S'F'
p33
sI33
S'I'
p34
sI34
S'H'
p35
sI35
S'K'
p36
sI36
S'J'
p37
sI37
S'M'
p38
sI38
S'L'
p39
sI39
S'O'
p40
sI40
S'N'
p41
sI41
S'Q'
p42
sI42
S'P'
p43
sI43
S'S'
p44
sI44
S'R'
p45
sI45
S'U'
p46
sI46
S'T'
p47
sI47
S'W'
p48
sI48
S'V'
p49
sI49
S'Y'
p50
sI50
S'X'
p51
sI51
S'['
p52
sI52
S'Z'
p53
sI53
S']'
p54
sI54
S'\\'
p55
sI55
S'_'
p56
sI56
S'a'
p57
sI57
S'`'
p58
sI58
S'c'
p59
sI59
S'b'
p60
sI60
S'e'
p61
sI61
S'd'
p62
sI62
S'g'
p63
sI63
S'f'
p64
sI64
S'i'
p65
sI65
S'h'
p66
sI66
S'k'
p67
sI67
S'j'
p68
sI68
S'm'
p69
sI69
S'l'
p70
sI70
S'o'
p71
sI71
S'n'
p72
sI72
S'q'
p73
sI73
S'p'
p74
sI74
S's'
p75
sI75
S'r'
p76
sI76
S'u'
p77
sI77
S't'
p78
sI78
S'w'
p79
sI79
S'v'
p80
sI80
S'y'
p81
sI81
S'x'
p82
sI82
S'{'
p83
sI83
S'z'
p84
sI84
S'}'
p85
s.