(dp0
I0
S'\n'
p1
sI1
S'\r'
p2
sI2
S'!'
p3
sI3
S' '
p4
sI4
S'"'
p5
sI5
S"'"
p6
sI6
S'&'
p7
sI7
S')'
p8
sI8
S'('
p9
sI9
S'-'
p10
sI10
S','
p11
sI11
S'/'
p12
sI12
S'.'
p13
sI13
S'1'
p14
sI14
S'0'
p15
sI15
S'3'
p16
sI16
S'2'
p17
sI17
S'5'
p18
sI18
S'4'
p19
sI19
S'7'
p20
sI20
S'6'
p21
sI21
S'9'
p22
sI22
S'8'
p23
sI23
S';'
p24
sI24
S':'
p25
sI25
S'?'
p26
sI26
S'['
p27
sI27
S']'
p28
sI28
S'a'
p29
sI29
S'c'
p30
sI30
S'b'
p31
sI31
S'e'
p32
sI32
S'd'
p33
sI33
S'g'
p34
sI34
S'f'
p35
sI35
S'i'
p36
sI36
S'h'
p37
sI37
S'k'
p38
sI38
S'j'
p39
sI39
S'm'
p40
sI40
S'l'
p41
sI41
S'o'
p42
sI42
S'n'
p43
sI43
S'q'
p44
sI44
S'p'
p45
sI45
S's'
p46
sI46
S'r'
p47
sI47
S'u'
p48
sI48
S't'
p49
sI49
S'w'
p50
sI50
S'v'
p51
sI51
S'y'
p52
sI52
S'x'
p53
sI53
S'z'
p54
s.