(dp0
S'\n'
p1
I0
sS'\r'
p2
I1
sS'!'
p3
I2
sS' '
p4
I3
sS'"'
p5
I4
sS"'"
p6
I5
sS'&'
p7
I6
sS')'
p8
I7
sS'('
p9
I8
sS'*'
p10
I9
sS'-'
p11
I10
sS','
p12
I11
sS'.'
p13
I12
sS'1'
p14
I13
sS'0'
p15
I14
sS'3'
p16
I15
sS'2'
p17
I16
sS'5'
p18
I17
sS'4'
p19
I18
sS'7'
p20
I19
sS'6'
p21
I20
sS'9'
p22
I21
sS'8'
p23
I22
sS';'
p24
I23
sS':'
p25
I24
sS'?'
p26
I25
sS'A'
p27
I26
sS'C'
p28
I27
sS'B'
p29
I28
sS'E'
p30
I29
sS'D'
p31
I30
sS'G'
p32
I31
sS'F'
p33
I32
sS'I'
p34
I33
sS'H'
p35
I34
sS'K'
p36
I35
sS'J'
p37
I36
sS'M'
p38
I37
sS'L'
p39
I38
sS'O'
p40
I39
sS'N'
p41
I40
sS'Q'
p42
I41
sS'P'
p43
I42
sS'S'
p44
I43
sS'R'
p45
I44
sS'U'
p46
I45
sS'T'
p47
I46
sS'W'
p48
I47
sS'V'
p49
I48
sS'Y'
p50
I49
sS'X'
p51
I50
sS'['
p52
I51
sS'Z'
p53
I52
sS']'
p54
I53
sS'\\'
p55
I54
sS'_'
p56
I55
sS'a'
p57
I56
sS'`'
p58
I57
sS'c'
p59
I58
sS'b'
p60
I59
sS'e'
p61
I60
sS'd'
p62
I61
sS'g'
p63
I62
sS'f'
p64
I63
sS'i'
p65
I64
sS'h'
p66
I65
sS'k'
p67
I66
sS'j'
p68
I67
sS'm'
p69
I68
sS'l'
p70
I69
sS'o'
p71
I70
sS'n'
p72
I71
sS'q'
p73
I72
sS'p'
p74
I73
sS's'
p75
I74
sS'r'
p76
I75
sS'u'
p77
I76
sS't'
p78
I77
sS'w'
p79
I78
sS'v'
p80
I79
sS'y'
p81
I80
sS'x'
p82
I81
sS'{'
p83
I82
sS'z'
p84
I83
sS'}'
p85
I84
s.