(dp0
S'\t'
p1
I0
sS'\n'
p2
I1
sS'\r'
p3
I2
sS'!'
p4
I3
sS' '
p5
I4
sS'"'
p6
I5
sS"'"
p7
I6
sS'&'
p8
I7
sS')'
p9
I8
sS'('
p10
I9
sS'+'
p11
I10
sS'*'
p12
I11
sS'-'
p13
I12
sS','
p14
I13
sS'/'
p15
I14
sS'.'
p16
I15
sS'1'
p17
I16
sS'0'
p18
I17
sS'3'
p19
I18
sS'2'
p20
I19
sS'5'
p21
I20
sS'4'
p22
I21
sS'7'
p23
I22
sS'6'
p24
I23
sS'9'
p25
I24
sS'8'
p26
I25
sS';'
p27
I26
sS':'
p28
I27
sS'='
p29
I28
sS'?'
p30
I29
sS'['
p31
I30
sS']'
p32
I31
sS'_'
p33
I32
sS'a'
p34
I33
sS'c'
p35
I34
sS'b'
p36
I35
sS'e'
p37
I36
sS'd'
p38
I37
sS'g'
p39
I38
sS'f'
p40
I39
sS'i'
p41
I40
sS'h'
p42
I41
sS'k'
p43
I42
sS'j'
p44
I43
sS'm'
p45
I44
sS'l'
p46
I45
sS'o'
p47
I46
sS'n'
p48
I47
sS'q'
p49
I48
sS'p'
p50
I49
sS's'
p51
I50
sS'r'
p52
I51
sS'u'
p53
I52
sS't'
p54
I53
sS'w'
p55
I54
sS'v'
p56
I55
sS'y'
p57
I56
sS'x'
p58
I57
sS'z'
p59
I58
s.