(dp0
S'\n'
p1
I0
sS'\r'
p2
I1
sS'!'
p3
I2
sS' '
p4
I3
sS'"'
p5
I4
sS"'"
p6
I5
sS')'
p7
I6
sS'('
p8
I7
sS'-'
p9
I8
sS','
p10
I9
sS'.'
p11
I10
sS'2'
p12
I11
sS'5'
p13
I12
sS';'
p14
I13
sS':'
p15
I14
sS'?'
p16
I15
sS'a'
p17
I16
sS'c'
p18
I17
sS'b'
p19
I18
sS'e'
p20
I19
sS'd'
p21
I20
sS'g'
p22
I21
sS'f'
p23
I22
sS'i'
p24
I23
sS'h'
p25
I24
sS'k'
p26
I25
sS'j'
p27
I26
sS'm'
p28
I27
sS'l'
p29
I28
sS'o'
p30
I29
sS'n'
p31
I30
sS'q'
p32
I31
sS'p'
p33
I32
sS's'
p34
I33
sS'r'
p35
I34
sS'u'
p36
I35
sS't'
p37
I36
sS'w'
p38
I37
sS'v'
p39
I38
sS'y'
p40
I39
sS'x'
p41
I40
sS'z'
p42
I41
s.